(ikmltools.kml_writer_configuration
KMLWriterConfiguration
p0
(dp1
S'age_only'
p2
I00
sS'image_dir'
p3
S'images'
p4
sS'source_paths'
p5
(lp6
S'/Users/Ross/Programming/Geotools/data/datedsamples07.txt'
p7
asS'age_in_name'
p8
I00
sS'output_path'
p9
S'/Users/Ross/Programming/Geotools/data/datedsamples07.kml'
p10
sS'no_name'
p11
I01
sS'use_default'
p12
I01
sS'placemarker_dict'
p13
(dp14
S'datedsamples07_placemarker'
p15
S'/Users/Ross/Programming/Geotools/data/placemarkers/datedsamples07_placemarker.txt'
p16
ssS'image_tag'
p17
S'L#'
p18
sS'style_dict'
p19
(dp20
S'datedsamples07_style'
p21
S'/Users/Ross/Programming/Geotools/data/styles/datedsamples07_style.txt'
p22
ssS'source_dir'
p23
S'/Users/Ross/Programming/Geotools/data'
p24
sS'display_figure'
p25
I01
sb.